; Function Attrs: mustprogress nounwind uwtable
define hidden void @_ZN3p2t12SweepContext10RemoveNodeEPNS_4NodeE(ptr noundef nonnull readnone align 8 captures(none) dereferenceable(200) %0, ptr noundef %1) local_unnamed_addr #8 align 2 {
  %3 = icmp eq ptr %1, null
  br i1 %3, label %5, label %4

4:                                                ; preds = %2
  tail call void @_ZdlPvm(ptr noundef nonnull %1, i64 noundef 40) #17
  br label %5

5:                                                ; preds = %4, %2
  ret void
}